; Function Attrs: mustprogress uwtable
define noundef nonnull align 8 dereferenceable(8) ptr @_ZN4YAMLlsERSoRKNS_4NodeE(ptr noundef nonnull returned align 8 dereferenceable(8) %out, ptr noundef nonnull align 1 %node) local_unnamed_addr #0 personality ptr @__gxx_personality_v0 {
entry:
  %emitter = alloca %"class.YAML::Emitter", align 8
  call void @_ZN4YAML7EmitterC1ERSo(ptr noundef nonnull align 8 dereferenceable(72) %emitter, ptr noundef nonnull align 8 dereferenceable(8) %out)
  %call = invoke noundef nonnull align 8 dereferenceable(72) ptr @_ZN4YAMLlsERNS_7EmitterERKNS_4NodeE(ptr noundef nonnull align 8 dereferenceable(72) %emitter, ptr noundef nonnull align 1 %node)
          to label %invoke.cont unwind label %lpad

invoke.cont:                                      ; preds = %entry
  call void @_ZN4YAML7EmitterD1Ev(ptr noundef nonnull align 8 dereferenceable(72) %emitter) #7
  ret ptr %out

lpad:                                             ; preds = %entry
  %0 = landingpad { ptr, i32 }
          cleanup
  call void @_ZN4YAML7EmitterD1Ev(ptr noundef nonnull align 8 dereferenceable(72) %emitter) #7
  resume { ptr, i32 } %0
}